target datalayout = "e-m:e-p270:32:32-p271:32:32-p272:64:64-i64:64-i128:128-f80:128-n8:16:32:64-S128"
target triple = "x86_64-pc-linux-gnu"

%"class.cvc5::internal::NodeTemplate" = type { ptr }
%"class.cvc5::internal::NodeTemplate.98" = type { ptr }

; Function Attrs: inlinehint mustprogress nounwind uwtable
define linkonce_odr hidden void @_ZNK4cvc58internal12NodeTemplateILb0EE21assertTNodeNotExpiredEv(ptr noundef nonnull align 8 dereferenceable(8) %0) #8 comdat align 2 {
  %2 = alloca ptr, align 8
  store ptr %0, ptr %2, align 8, !tbaa !64
  ret void
}

; Function Attrs: mustprogress nounwind uwtable
define linkonce_odr hidden void @_ZN4cvc58internal12NodeTemplateILb0EEC2ERKNS1_ILb1EEE(ptr noundef nonnull align 8 dereferenceable(8) %0, ptr noundef nonnull align 8 dereferenceable(8) %1) unnamed_addr #5 comdat align 2 {
  %3 = alloca ptr, align 8
  %4 = alloca ptr, align 8
  store ptr %0, ptr %3, align 8, !tbaa !64
  store ptr %1, ptr %4, align 8, !tbaa !50
  %5 = load ptr, ptr %3, align 8
  %6 = load ptr, ptr %4, align 8, !tbaa !50
  %7 = getelementptr inbounds nuw %"class.cvc5::internal::NodeTemplate", ptr %6, i32 0, i32 0
  %8 = load ptr, ptr %7, align 8, !tbaa !51
  %9 = getelementptr inbounds nuw %"class.cvc5::internal::NodeTemplate.98", ptr %5, i32 0, i32 0
  store ptr %8, ptr %9, align 8, !tbaa !79
  ret void
}

; Function Attrs: mustprogress nounwind uwtable
define linkonce_odr hidden void @_ZN4cvc58internal12NodeTemplateILb0EED2Ev(ptr noundef nonnull align 8 dereferenceable(8) %0) unnamed_addr #5 comdat align 2 {
  %2 = alloca ptr, align 8
  store ptr %0, ptr %2, align 8, !tbaa !64
  ret void
}

; Function Attrs: mustprogress nounwind uwtable
define linkonce_odr hidden void @_ZN4cvc58internal12NodeTemplateILb0EEC2ERKS2_(ptr noundef nonnull align 8 dereferenceable(8) %0, ptr noundef nonnull align 8 dereferenceable(8) %1) unnamed_addr #5 comdat align 2 {
  %3 = alloca ptr, align 8
  %4 = alloca ptr, align 8
  store ptr %0, ptr %3, align 8, !tbaa !64
  store ptr %1, ptr %4, align 8, !tbaa !64
  %5 = load ptr, ptr %3, align 8
  %6 = load ptr, ptr %4, align 8, !tbaa !64
  %7 = getelementptr inbounds nuw %"class.cvc5::internal::NodeTemplate.98", ptr %6, i32 0, i32 0
  %8 = load ptr, ptr %7, align 8, !tbaa !79
  %9 = getelementptr inbounds nuw %"class.cvc5::internal::NodeTemplate.98", ptr %5, i32 0, i32 0
  store ptr %8, ptr %9, align 8, !tbaa !79
  ret void
}

; Function Attrs: mustprogress nounwind uwtable
define linkonce_odr hidden noundef zeroext i1 @_ZNK4cvc58internal12NodeTemplateILb0EEeqILb0EEEbRKNS1_IXT_EEE(ptr noundef nonnull align 8 dereferenceable(8) %0, ptr noundef nonnull align 8 dereferenceable(8) %1) #5 comdat align 2 {
  %3 = alloca ptr, align 8
  %4 = alloca ptr, align 8
  store ptr %0, ptr %3, align 8, !tbaa !64
  store ptr %1, ptr %4, align 8, !tbaa !64
  %5 = load ptr, ptr %3, align 8
  call void @_ZNK4cvc58internal12NodeTemplateILb0EE21assertTNodeNotExpiredEv(ptr noundef nonnull align 8 dereferenceable(8) %5)
  %6 = load ptr, ptr %4, align 8, !tbaa !64
  call void @_ZNK4cvc58internal12NodeTemplateILb0EE21assertTNodeNotExpiredEv(ptr noundef nonnull align 8 dereferenceable(8) %6)
  %7 = getelementptr inbounds nuw %"class.cvc5::internal::NodeTemplate.98", ptr %5, i32 0, i32 0
  %8 = load ptr, ptr %7, align 8, !tbaa !79
  %9 = load ptr, ptr %4, align 8, !tbaa !64
  %10 = getelementptr inbounds nuw %"class.cvc5::internal::NodeTemplate.98", ptr %9, i32 0, i32 0
  %11 = load ptr, ptr %10, align 8, !tbaa !79
  %12 = icmp eq ptr %8, %11
  ret i1 %12
}

; Function Attrs: mustprogress uwtable
define hidden noundef i32 @_ZN4cvc58internal6theory5arith2nl7NlModel7compareENS0_12NodeTemplateILb0EEES6_bb(ptr noundef nonnull align 8 dereferenceable(369) %0, ptr noundef %1, ptr noundef %2, i1 noundef zeroext %3, i1 noundef zeroext %4) #4 align 2 personality ptr @__gxx_personality_v0 {
  %6 = alloca i32, align 4
  %7 = alloca ptr, align 8
  %8 = alloca ptr, align 8
  %9 = alloca ptr, align 8
  %10 = alloca i8, align 1
  %11 = alloca i8, align 1
  %12 = alloca %"class.cvc5::internal::NodeTemplate", align 8
  %13 = alloca %"class.cvc5::internal::NodeTemplate.98", align 8
  %14 = alloca ptr, align 8
  %15 = alloca i32, align 4
  %16 = alloca %"class.cvc5::internal::NodeTemplate", align 8
  %17 = alloca %"class.cvc5::internal::NodeTemplate.98", align 8
  %18 = alloca %"class.cvc5::internal::NodeTemplate.98", align 8
  %19 = alloca %"class.cvc5::internal::NodeTemplate.98", align 8
  %20 = alloca i32, align 4
  store ptr %0, ptr %7, align 8, !tbaa !3
  store ptr %1, ptr %8, align 8, !tbaa !64
  store ptr %2, ptr %9, align 8, !tbaa !64
  %21 = zext i1 %3 to i8
  store i8 %21, ptr %10, align 1, !tbaa !45
  %22 = zext i1 %4 to i8
  store i8 %22, ptr %11, align 1, !tbaa !45
  %23 = load ptr, ptr %7, align 8
  %24 = call noundef zeroext i1 @_ZNK4cvc58internal12NodeTemplateILb0EEeqILb0EEEbRKNS1_IXT_EEE(ptr noundef nonnull align 8 dereferenceable(8) %1, ptr noundef nonnull align 8 dereferenceable(8) %2)
  br i1 %24, label %25, label %26

25:                                               ; preds = %5
  store i32 0, ptr %6, align 4
  br label %80

26:                                               ; preds = %5
  call void @llvm.lifetime.start.p0(i64 8, ptr %12) #3
  call void @_ZN4cvc58internal12NodeTemplateILb0EEC2ERKS2_(ptr noundef nonnull align 8 dereferenceable(8) %13, ptr noundef nonnull align 8 dereferenceable(8) %1)
  %27 = load i8, ptr %10, align 1, !tbaa !45, !range !66, !noundef !67
  %28 = trunc i8 %27 to i1
  invoke void @_ZN4cvc58internal6theory5arith2nl7NlModel17computeModelValueENS0_12NodeTemplateILb0EEEb(ptr dead_on_unwind writable sret(%"class.cvc5::internal::NodeTemplate") align 8 %12, ptr noundef nonnull align 8 dereferenceable(369) %23, ptr noundef %13, i1 noundef zeroext %28)
          to label %29 unwind label %46

29:                                               ; preds = %26
  call void @_ZN4cvc58internal12NodeTemplateILb0EED2Ev(ptr noundef nonnull align 8 dereferenceable(8) %13) #3
  call void @llvm.lifetime.start.p0(i64 8, ptr %16) #3
  invoke void @_ZN4cvc58internal12NodeTemplateILb0EEC2ERKS2_(ptr noundef nonnull align 8 dereferenceable(8) %17, ptr noundef nonnull align 8 dereferenceable(8) %2)
          to label %30 unwind label %50

30:                                               ; preds = %29
  %31 = load i8, ptr %10, align 1, !tbaa !45, !range !66, !noundef !67
  %32 = trunc i8 %31 to i1
  invoke void @_ZN4cvc58internal6theory5arith2nl7NlModel17computeModelValueENS0_12NodeTemplateILb0EEEb(ptr dead_on_unwind writable sret(%"class.cvc5::internal::NodeTemplate") align 8 %16, ptr noundef nonnull align 8 dereferenceable(369) %23, ptr noundef %17, i1 noundef zeroext %32)
          to label %33 unwind label %54

33:                                               ; preds = %30
  call void @_ZN4cvc58internal12NodeTemplateILb0EED2Ev(ptr noundef nonnull align 8 dereferenceable(8) %17) #3
  %34 = invoke noundef zeroext i1 @_ZNK4cvc58internal12NodeTemplateILb1EE7isConstEv(ptr noundef nonnull align 8 dereferenceable(8) %12)
          to label %35 unwind label %58

35:                                               ; preds = %33
  br i1 %34, label %36, label %72

36:                                               ; preds = %35
  %37 = invoke noundef zeroext i1 @_ZNK4cvc58internal12NodeTemplateILb1EE7isConstEv(ptr noundef nonnull align 8 dereferenceable(8) %16)
          to label %38 unwind label %58

38:                                               ; preds = %36
  br i1 %37, label %39, label %71

39:                                               ; preds = %38
  invoke void @_ZN4cvc58internal12NodeTemplateILb0EEC2ERKNS1_ILb1EEE(ptr noundef nonnull align 8 dereferenceable(8) %18, ptr noundef nonnull align 8 dereferenceable(8) %12)
          to label %40 unwind label %58

40:                                               ; preds = %39
  invoke void @_ZN4cvc58internal12NodeTemplateILb0EEC2ERKNS1_ILb1EEE(ptr noundef nonnull align 8 dereferenceable(8) %19, ptr noundef nonnull align 8 dereferenceable(8) %16)
          to label %41 unwind label %62

41:                                               ; preds = %40
  %42 = load i8, ptr %11, align 1, !tbaa !45, !range !66, !noundef !67
  %43 = trunc i8 %42 to i1
  %44 = invoke noundef i32 @_ZNK4cvc58internal6theory5arith2nl7NlModel12compareValueENS0_12NodeTemplateILb0EEES6_b(ptr noundef nonnull align 8 dereferenceable(369) %23, ptr noundef %18, ptr noundef %19, i1 noundef zeroext %43)
          to label %45 unwind label %66

45:                                               ; preds = %41
  store i32 %44, ptr %6, align 4
  call void @_ZN4cvc58internal12NodeTemplateILb0EED2Ev(ptr noundef nonnull align 8 dereferenceable(8) %19) #3
  call void @_ZN4cvc58internal12NodeTemplateILb0EED2Ev(ptr noundef nonnull align 8 dereferenceable(8) %18) #3
  store i32 1, ptr %20, align 4
  br label %76

46:                                               ; preds = %26
  %47 = landingpad { ptr, i32 }
          cleanup
  %48 = extractvalue { ptr, i32 } %47, 0
  store ptr %48, ptr %14, align 8
  %49 = extractvalue { ptr, i32 } %47, 1
  store i32 %49, ptr %15, align 4
  call void @_ZN4cvc58internal12NodeTemplateILb0EED2Ev(ptr noundef nonnull align 8 dereferenceable(8) %13) #3
  br label %79

50:                                               ; preds = %29
  %51 = landingpad { ptr, i32 }
          cleanup
  %52 = extractvalue { ptr, i32 } %51, 0
  store ptr %52, ptr %14, align 8
  %53 = extractvalue { ptr, i32 } %51, 1
  store i32 %53, ptr %15, align 4
  br label %78

54:                                               ; preds = %30
  %55 = landingpad { ptr, i32 }
          cleanup
  %56 = extractvalue { ptr, i32 } %55, 0
  store ptr %56, ptr %14, align 8
  %57 = extractvalue { ptr, i32 } %55, 1
  store i32 %57, ptr %15, align 4
  call void @_ZN4cvc58internal12NodeTemplateILb0EED2Ev(ptr noundef nonnull align 8 dereferenceable(8) %17) #3
  br label %78

58:                                               ; preds = %72, %39, %36, %33
  %59 = landingpad { ptr, i32 }
          cleanup
  %60 = extractvalue { ptr, i32 } %59, 0
  store ptr %60, ptr %14, align 8
  %61 = extractvalue { ptr, i32 } %59, 1
  store i32 %61, ptr %15, align 4
  br label %77

62:                                               ; preds = %40
  %63 = landingpad { ptr, i32 }
          cleanup
  %64 = extractvalue { ptr, i32 } %63, 0
  store ptr %64, ptr %14, align 8
  %65 = extractvalue { ptr, i32 } %63, 1
  store i32 %65, ptr %15, align 4
  br label %70

66:                                               ; preds = %41
  %67 = landingpad { ptr, i32 }
          cleanup
  %68 = extractvalue { ptr, i32 } %67, 0
  store ptr %68, ptr %14, align 8
  %69 = extractvalue { ptr, i32 } %67, 1
  store i32 %69, ptr %15, align 4
  call void @_ZN4cvc58internal12NodeTemplateILb0EED2Ev(ptr noundef nonnull align 8 dereferenceable(8) %19) #3
  br label %70

70:                                               ; preds = %66, %62
  call void @_ZN4cvc58internal12NodeTemplateILb0EED2Ev(ptr noundef nonnull align 8 dereferenceable(8) %18) #3
  br label %77

71:                                               ; preds = %38
  store i32 1, ptr %6, align 4
  store i32 1, ptr %20, align 4
  br label %76

72:                                               ; preds = %35
  %73 = invoke noundef zeroext i1 @_ZNK4cvc58internal12NodeTemplateILb1EE7isConstEv(ptr noundef nonnull align 8 dereferenceable(8) %16)
          to label %74 unwind label %58

74:                                               ; preds = %72
  %75 = select i1 %73, i32 -1, i32 0
  store i32 %75, ptr %6, align 4
  store i32 1, ptr %20, align 4
  br label %76

76:                                               ; preds = %74, %71, %45
  call void @_ZN4cvc58internal12NodeTemplateILb1EED2Ev(ptr noundef nonnull align 8 dereferenceable(8) %16) #3
  call void @llvm.lifetime.end.p0(i64 8, ptr %16) #3
  call void @_ZN4cvc58internal12NodeTemplateILb1EED2Ev(ptr noundef nonnull align 8 dereferenceable(8) %12) #3
  call void @llvm.lifetime.end.p0(i64 8, ptr %12) #3
  br label %80

77:                                               ; preds = %70, %58
  call void @_ZN4cvc58internal12NodeTemplateILb1EED2Ev(ptr noundef nonnull align 8 dereferenceable(8) %16) #3
  br label %78

78:                                               ; preds = %77, %54, %50
  call void @llvm.lifetime.end.p0(i64 8, ptr %16) #3
  call void @_ZN4cvc58internal12NodeTemplateILb1EED2Ev(ptr noundef nonnull align 8 dereferenceable(8) %12) #3
  br label %79

79:                                               ; preds = %78, %46
  call void @llvm.lifetime.end.p0(i64 8, ptr %12) #3
  br label %82

80:                                               ; preds = %76, %25
  %81 = load i32, ptr %6, align 4
  ret i32 %81

82:                                               ; preds = %79
  %83 = load ptr, ptr %14, align 8
  %84 = load i32, ptr %15, align 4
  %85 = insertvalue { ptr, i32 } poison, ptr %83, 0
  %86 = insertvalue { ptr, i32 } %85, i32 %84, 1
  resume { ptr, i32 } %86
}