; Function Attrs: mustprogress uwtable
define hidden noundef range(i32 -1, 2) i32 @_ZN4cvc58internal6theory5arith2nl7NlModel7compareENS0_12NodeTemplateILb0EEES6_bb(ptr noundef nonnull align 8 dereferenceable(369) %0, ptr noundef readonly captures(none) %1, ptr noundef readonly captures(none) %2, i1 noundef zeroext %3, i1 noundef zeroext %4) local_unnamed_addr #3 align 2 personality ptr @__gxx_personality_v0 {
  %6 = alloca %"class.cvc5::internal::NodeTemplate", align 8
  %7 = alloca %"class.cvc5::internal::NodeTemplate.98", align 8
  %8 = alloca %"class.cvc5::internal::NodeTemplate", align 8
  %9 = alloca %"class.cvc5::internal::NodeTemplate.98", align 8
  %10 = alloca %"class.cvc5::internal::NodeTemplate.98", align 8
  %11 = alloca %"class.cvc5::internal::NodeTemplate.98", align 8
  %12 = load ptr, ptr %1, align 8, !tbaa !64
  %13 = load ptr, ptr %2, align 8, !tbaa !64
  %14 = icmp eq ptr %12, %13
  br i1 %14, label %66, label %15

15:                                               ; preds = %5
  call void @llvm.lifetime.start.p0(i64 8, ptr nonnull %6) #25
  store ptr %12, ptr %7, align 8, !tbaa !64
  call void @_ZN4cvc58internal6theory5arith2nl7NlModel17computeModelValueENS0_12NodeTemplateILb0EEEb(ptr dead_on_unwind nonnull writable sret(%"class.cvc5::internal::NodeTemplate") align 8 %6, ptr noundef nonnull align 8 dereferenceable(369) %0, ptr noundef nonnull %7, i1 noundef zeroext %3)
  call void @llvm.lifetime.start.p0(i64 8, ptr nonnull %8) #25
  %16 = load ptr, ptr %2, align 8, !tbaa !64
  store ptr %16, ptr %9, align 8, !tbaa !64
  invoke void @_ZN4cvc58internal6theory5arith2nl7NlModel17computeModelValueENS0_12NodeTemplateILb0EEEb(ptr dead_on_unwind nonnull writable sret(%"class.cvc5::internal::NodeTemplate") align 8 %8, ptr noundef nonnull align 8 dereferenceable(369) %0, ptr noundef nonnull %9, i1 noundef zeroext %3)
          to label %17 unwind label %27

17:                                               ; preds = %15
  %18 = invoke noundef zeroext i1 @_ZNK4cvc58internal12NodeTemplateILb1EE7isConstEv(ptr noundef nonnull align 8 dereferenceable(8) %6)
          to label %19 unwind label %29

19:                                               ; preds = %17
  br i1 %18, label %20, label %33

20:                                               ; preds = %19
  %21 = invoke noundef zeroext i1 @_ZNK4cvc58internal12NodeTemplateILb1EE7isConstEv(ptr noundef nonnull align 8 dereferenceable(8) %8)
          to label %22 unwind label %29

22:                                               ; preds = %20
  br i1 %21, label %23, label %37

23:                                               ; preds = %22
  %24 = load ptr, ptr %6, align 8, !tbaa !21
  store ptr %24, ptr %10, align 8, !tbaa !64
  %25 = load ptr, ptr %8, align 8, !tbaa !21
  store ptr %25, ptr %11, align 8, !tbaa !64
  %26 = invoke noundef i32 @_ZNK4cvc58internal6theory5arith2nl7NlModel12compareValueENS0_12NodeTemplateILb0EEES6_b(ptr nonnull align 8 poison, ptr noundef nonnull %10, ptr noundef nonnull %11, i1 noundef zeroext %4)
          to label %37 unwind label %31

27:                                               ; preds = %15
  %28 = landingpad { ptr, i32 }
          cleanup
  br label %65

29:                                               ; preds = %33, %20, %17
  %30 = landingpad { ptr, i32 }
          cleanup
  br label %64

31:                                               ; preds = %23
  %32 = landingpad { ptr, i32 }
          cleanup
  br label %64

33:                                               ; preds = %19
  %34 = invoke noundef zeroext i1 @_ZNK4cvc58internal12NodeTemplateILb1EE7isConstEv(ptr noundef nonnull align 8 dereferenceable(8) %8)
          to label %35 unwind label %29

35:                                               ; preds = %33
  %36 = sext i1 %34 to i32
  br label %37

37:                                               ; preds = %23, %22, %35
  %.110 = phi i32 [ %36, %35 ], [ 1, %22 ], [ %26, %23 ]
  %38 = load ptr, ptr %8, align 8, !tbaa !21
  %39 = load i64, ptr %38, align 8
  %40 = and i64 %39, 1152920405095219200
  %.not.i.i = icmp eq i64 %40, 1152920405095219200
  br i1 %.not.i.i, label %_ZN4cvc58internal12NodeTemplateILb1EED2Ev.exit, label %41, !prof !34

41:                                               ; preds = %37
  %42 = add i64 %39, 1152920405095219200
  %43 = and i64 %42, 1152920405095219200
  %44 = and i64 %39, -1152920405095219201
  %45 = or disjoint i64 %43, %44
  store i64 %45, ptr %38, align 8
  %46 = icmp eq i64 %43, 0
  br i1 %46, label %47, label %_ZN4cvc58internal12NodeTemplateILb1EED2Ev.exit, !prof !34

47:                                               ; preds = %41
  invoke void @_ZN4cvc58internal4expr9NodeValue15markForDeletionEv(ptr noundef nonnull align 8 dereferenceable(24) %38)
          to label %_ZN4cvc58internal12NodeTemplateILb1EED2Ev.exit unwind label %48

48:                                               ; preds = %47
  %49 = landingpad { ptr, i32 }
          catch ptr null
  %50 = extractvalue { ptr, i32 } %49, 0
  call void @__clang_call_terminate(ptr %50) #27
  unreachable

_ZN4cvc58internal12NodeTemplateILb1EED2Ev.exit:   ; preds = %37, %41, %47
  call void @llvm.lifetime.end.p0(i64 8, ptr nonnull %8) #25
  %51 = load ptr, ptr %6, align 8, !tbaa !21
  %52 = load i64, ptr %51, align 8
  %53 = and i64 %52, 1152920405095219200
  %.not.i.i14 = icmp eq i64 %53, 1152920405095219200
  br i1 %.not.i.i14, label %_ZN4cvc58internal12NodeTemplateILb1EED2Ev.exit15, label %54, !prof !34

54:                                               ; preds = %_ZN4cvc58internal12NodeTemplateILb1EED2Ev.exit
  %55 = add i64 %52, 1152920405095219200
  %56 = and i64 %55, 1152920405095219200
  %57 = and i64 %52, -1152920405095219201
  %58 = or disjoint i64 %56, %57
  store i64 %58, ptr %51, align 8
  %59 = icmp eq i64 %56, 0
  br i1 %59, label %60, label %_ZN4cvc58internal12NodeTemplateILb1EED2Ev.exit15, !prof !34

60:                                               ; preds = %54
  invoke void @_ZN4cvc58internal4expr9NodeValue15markForDeletionEv(ptr noundef nonnull align 8 dereferenceable(24) %51)
          to label %_ZN4cvc58internal12NodeTemplateILb1EED2Ev.exit15 unwind label %61

61:                                               ; preds = %60
  %62 = landingpad { ptr, i32 }
          catch ptr null
  %63 = extractvalue { ptr, i32 } %62, 0
  call void @__clang_call_terminate(ptr %63) #27
  unreachable

_ZN4cvc58internal12NodeTemplateILb1EED2Ev.exit15: ; preds = %_ZN4cvc58internal12NodeTemplateILb1EED2Ev.exit, %54, %60
  call void @llvm.lifetime.end.p0(i64 8, ptr nonnull %6) #25
  br label %66

64:                                               ; preds = %31, %29
  %.pn = phi { ptr, i32 } [ %32, %31 ], [ %30, %29 ]
  call void @_ZN4cvc58internal12NodeTemplateILb1EED2Ev(ptr noundef nonnull align 8 dereferenceable(8) %8) #25
  br label %65

65:                                               ; preds = %64, %27
  %.pn.pn = phi { ptr, i32 } [ %.pn, %64 ], [ %28, %27 ]
  call void @llvm.lifetime.end.p0(i64 8, ptr nonnull %8) #25
  call void @_ZN4cvc58internal12NodeTemplateILb1EED2Ev(ptr noundef nonnull align 8 dereferenceable(8) %6) #25
  call void @llvm.lifetime.end.p0(i64 8, ptr nonnull %6) #25
  resume { ptr, i32 } %.pn.pn

66:                                               ; preds = %5, %_ZN4cvc58internal12NodeTemplateILb1EED2Ev.exit15
  %.09 = phi i32 [ %.110, %_ZN4cvc58internal12NodeTemplateILb1EED2Ev.exit15 ], [ 0, %5 ]
  ret i32 %.09
}